target datalayout = "e-m:e-p270:32:32-p271:32:32-p272:64:64-i64:64-i128:128-f80:128-n8:16:32:64-S128"
target triple = "x86_64-pc-linux-gnu"

%"class.clang::SanitizerMask" = type { [2 x i64] }
%"class.llvm::SmallVectorBase" = type { ptr, i32, i32 }
%"class.llvm::StringRef" = type { ptr, i64 }
%"class.std::__cxx11::basic_string" = type { %"struct.std::__cxx11::basic_string<char>::_Alloc_hider", i64, %union.anon.39 }
%"struct.std::__cxx11::basic_string<char>::_Alloc_hider" = type { ptr }
%union.anon.39 = type { i64, [8 x i8] }
%"class.llvm::SmallVectorImpl.189" = type { %"class.llvm::SmallVectorTemplateBase.190" }
%"class.llvm::SmallVectorTemplateBase.190" = type { %"class.llvm::SmallVectorTemplateCommon.191" }
%"class.llvm::SmallVectorTemplateCommon.191" = type { %"class.llvm::SmallVectorBase.192" }
%"class.llvm::SmallVectorBase.192" = type { ptr, i64, i64 }
%"struct.std::_Rb_tree_header" = type { %"struct.std::_Rb_tree_node_base", i64 }
%"struct.std::_Rb_tree_node_base" = type { i32, ptr, ptr, ptr }
%"class.std::_Function_base" = type { %"union.std::_Any_data", ptr }
%"union.std::_Any_data" = type { %"union.std::_Nocopy_types" }
%"union.std::_Nocopy_types" = type { { i64, i64 } }
%"class.clang::driver::ToolChain" = type { ptr, ptr, %"class.llvm::Triple", ptr, ptr, i32, i32, %"class.llvm::SmallVector.40", %"class.llvm::SmallVector.40", %"class.llvm::SmallVector.40", %"class.std::unique_ptr", %"class.std::unique_ptr", %"class.std::unique_ptr", %"class.std::unique_ptr", %"class.std::unique_ptr", %"class.std::unique_ptr", %"class.std::unique_ptr", %"class.std::unique_ptr", %"class.std::unique_ptr", i8, %"class.std::unique_ptr.47", %"class.llvm::Triple", %"class.std::optional", %"class.std::optional.55", %"class.std::optional.63", %"class.clang::driver::MultilibSet", %"class.llvm::SmallVector.83" }
%"class.llvm::SmallVector.40" = type { %"class.llvm::SmallVectorImpl.41", %"struct.llvm::SmallVectorStorage.44" }
%"class.llvm::SmallVectorImpl.41" = type { %"class.llvm::SmallVectorTemplateBase.42" }
%"class.llvm::SmallVectorTemplateBase.42" = type { %"class.llvm::SmallVectorTemplateCommon.43" }
%"class.llvm::SmallVectorTemplateCommon.43" = type { %"class.llvm::SmallVectorBase" }
%"struct.llvm::SmallVectorStorage.44" = type { [512 x i8] }
%"class.std::unique_ptr" = type { %"struct.std::__uniq_ptr_data" }
%"struct.std::__uniq_ptr_data" = type { %"class.std::__uniq_ptr_impl" }
%"class.std::__uniq_ptr_impl" = type { %"class.std::tuple" }
%"class.std::tuple" = type { %"struct.std::_Tuple_impl" }
%"struct.std::_Tuple_impl" = type { %"struct.std::_Head_base.46" }
%"struct.std::_Head_base.46" = type { ptr }
%"class.std::unique_ptr.47" = type { %"struct.std::__uniq_ptr_data.48" }
%"struct.std::__uniq_ptr_data.48" = type { %"class.std::__uniq_ptr_impl.49" }
%"class.std::__uniq_ptr_impl.49" = type { %"class.std::tuple.50" }
%"class.std::tuple.50" = type { %"struct.std::_Tuple_impl.51" }
%"struct.std::_Tuple_impl.51" = type { %"struct.std::_Head_base.54" }
%"struct.std::_Head_base.54" = type { ptr }
%"class.llvm::Triple" = type { %"class.std::__cxx11::basic_string", i32, i32, i32, i32, i32, i32 }
%"class.std::optional" = type { %"struct.std::_Optional_base" }
%"struct.std::_Optional_base" = type { %"struct.std::_Optional_payload" }
%"struct.std::_Optional_payload" = type { %"struct.std::_Optional_payload_base.base", [3 x i8] }
%"struct.std::_Optional_payload_base.base" = type <{ %"union.std::_Optional_payload_base<clang::driver::ToolChain::CXXStdlibType>::_Storage", i8 }>
%"union.std::_Optional_payload_base<clang::driver::ToolChain::CXXStdlibType>::_Storage" = type { i32 }
%"class.std::optional.55" = type { %"struct.std::_Optional_base.56" }
%"struct.std::_Optional_base.56" = type { %"struct.std::_Optional_payload.58" }
%"struct.std::_Optional_payload.58" = type { %"struct.std::_Optional_payload_base.base.60", [3 x i8] }
%"struct.std::_Optional_payload_base.base.60" = type <{ %"union.std::_Optional_payload_base<clang::driver::ToolChain::RuntimeLibType>::_Storage", i8 }>
%"union.std::_Optional_payload_base<clang::driver::ToolChain::RuntimeLibType>::_Storage" = type { i32 }
%"class.std::optional.63" = type { %"struct.std::_Optional_base.64" }
%"struct.std::_Optional_base.64" = type { %"struct.std::_Optional_payload.66" }
%"struct.std::_Optional_payload.66" = type { %"struct.std::_Optional_payload_base.base.68", [3 x i8] }
%"struct.std::_Optional_payload_base.base.68" = type <{ %"union.std::_Optional_payload_base<clang::driver::ToolChain::UnwindLibType>::_Storage", i8 }>
%"union.std::_Optional_payload_base<clang::driver::ToolChain::UnwindLibType>::_Storage" = type { i32 }
%"class.clang::driver::MultilibSet" = type { %"class.std::vector.71", %"class.std::vector.76", %"class.std::function.81", %"class.std::function.81" }
%"class.std::vector.71" = type { %"struct.std::_Vector_base.72" }
%"struct.std::_Vector_base.72" = type { %"struct.std::_Vector_base<clang::driver::Multilib, std::allocator<clang::driver::Multilib>>::_Vector_impl" }
%"struct.std::_Vector_base<clang::driver::Multilib, std::allocator<clang::driver::Multilib>>::_Vector_impl" = type { %"struct.std::_Vector_base<clang::driver::Multilib, std::allocator<clang::driver::Multilib>>::_Vector_impl_data" }
%"struct.std::_Vector_base<clang::driver::Multilib, std::allocator<clang::driver::Multilib>>::_Vector_impl_data" = type { ptr, ptr, ptr }
%"class.std::vector.76" = type { %"struct.std::_Vector_base.77" }
%"struct.std::_Vector_base.77" = type { %"struct.std::_Vector_base<clang::driver::MultilibSet::FlagMatcher, std::allocator<clang::driver::MultilibSet::FlagMatcher>>::_Vector_impl" }
%"struct.std::_Vector_base<clang::driver::MultilibSet::FlagMatcher, std::allocator<clang::driver::MultilibSet::FlagMatcher>>::_Vector_impl" = type { %"struct.std::_Vector_base<clang::driver::MultilibSet::FlagMatcher, std::allocator<clang::driver::MultilibSet::FlagMatcher>>::_Vector_impl_data" }
%"struct.std::_Vector_base<clang::driver::MultilibSet::FlagMatcher, std::allocator<clang::driver::MultilibSet::FlagMatcher>>::_Vector_impl_data" = type { ptr, ptr, ptr }
%"class.std::function.81" = type { %"class.std::_Function_base", ptr }
%"class.llvm::SmallVector.83" = type { %"class.llvm::SmallVectorImpl.84", %"struct.llvm::SmallVectorStorage.87" }
%"class.llvm::SmallVectorImpl.84" = type { %"class.llvm::SmallVectorTemplateBase.85" }
%"class.llvm::SmallVectorTemplateBase.85" = type { %"class.llvm::SmallVectorTemplateCommon.86" }
%"class.llvm::SmallVectorTemplateCommon.86" = type { %"class.llvm::SmallVectorBase" }
%"struct.llvm::SmallVectorStorage.87" = type { [192 x i8] }
%"class.std::vector.98" = type { %"struct.std::_Vector_base.99" }
%"struct.std::_Vector_base.99" = type { %"struct.std::_Vector_base<std::__cxx11::basic_string<char>, std::allocator<std::__cxx11::basic_string<char>>>::_Vector_impl" }
%"struct.std::_Vector_base<std::__cxx11::basic_string<char>, std::allocator<std::__cxx11::basic_string<char>>>::_Vector_impl" = type { %"struct.std::_Vector_base<std::__cxx11::basic_string<char>, std::allocator<std::__cxx11::basic_string<char>>>::_Vector_impl_data" }
%"struct.std::_Vector_base<std::__cxx11::basic_string<char>, std::allocator<std::__cxx11::basic_string<char>>>::_Vector_impl_data" = type { ptr, ptr, ptr }
%"class.llvm::StringMapImpl" = type { ptr, i32, i32, i32, i32 }
%"class.clang::driver::toolchains::HIPAMDToolChain" = type { %"class.clang::driver::toolchains::ROCMToolChain", ptr }
%"class.clang::driver::toolchains::ROCMToolChain" = type { %"class.clang::driver::toolchains::AMDGPUToolChain" }
%"class.clang::driver::toolchains::AMDGPUToolChain" = type { %"class.clang::driver::toolchains::Generic_ELF", %"class.std::map.225" }
%"class.clang::driver::toolchains::Generic_ELF" = type { %"class.clang::driver::toolchains::Generic_GCC" }
%"class.clang::driver::toolchains::Generic_GCC" = type { %"class.clang::driver::ToolChain", %"class.clang::driver::toolchains::Generic_GCC::GCCInstallationDetector", %"class.clang::LazyDetector", %"class.clang::LazyDetector.181", %"class.std::unique_ptr.209", %"class.std::unique_ptr.217" }
%"class.clang::driver::toolchains::Generic_GCC::GCCInstallationDetector" = type { i8, %"class.llvm::Triple", ptr, %"class.std::__cxx11::basic_string", %"class.std::__cxx11::basic_string", %"class.clang::driver::Multilib", %"class.std::optional.155", %"struct.clang::driver::toolchains::Generic_GCC::GCCVersion", %"class.std::set", %"class.clang::driver::MultilibSet", %"class.std::__cxx11::basic_string" }
%"class.clang::driver::Multilib" = type { %"class.std::__cxx11::basic_string", %"class.std::__cxx11::basic_string", %"class.std::__cxx11::basic_string", %"class.std::vector.98", %"class.std::__cxx11::basic_string", %"class.std::optional.145" }
%"class.std::optional.145" = type { %"struct.std::_Optional_base.146" }
%"struct.std::_Optional_base.146" = type { %"struct.std::_Optional_payload.148" }
%"struct.std::_Optional_payload.148" = type { %"struct.std::_Optional_payload.base.152", [7 x i8] }
%"struct.std::_Optional_payload.base.152" = type { %"struct.std::_Optional_payload_base.base.151" }
%"struct.std::_Optional_payload_base.base.151" = type <{ %"union.std::_Optional_payload_base<std::__cxx11::basic_string<char>>::_Storage", i8 }>
%"union.std::_Optional_payload_base<std::__cxx11::basic_string<char>>::_Storage" = type { %"class.std::__cxx11::basic_string" }
%"class.std::optional.155" = type { %"struct.std::_Optional_base.156" }
%"struct.std::_Optional_base.156" = type { %"struct.std::_Optional_payload.158" }
%"struct.std::_Optional_payload.158" = type { %"struct.std::_Optional_payload.base.162", [7 x i8] }
%"struct.std::_Optional_payload.base.162" = type { %"struct.std::_Optional_payload_base.base.161" }
%"struct.std::_Optional_payload_base.base.161" = type <{ %"union.std::_Optional_payload_base<clang::driver::Multilib>::_Storage", i8 }>
%"union.std::_Optional_payload_base<clang::driver::Multilib>::_Storage" = type { %"class.clang::driver::Multilib" }
%"struct.clang::driver::toolchains::Generic_GCC::GCCVersion" = type { %"class.std::__cxx11::basic_string", i32, i32, i32, %"class.std::__cxx11::basic_string", %"class.std::__cxx11::basic_string", %"class.std::__cxx11::basic_string" }
%"class.std::set" = type { %"class.std::_Rb_tree.165" }
%"class.std::_Rb_tree.165" = type { %"struct.std::_Rb_tree<std::__cxx11::basic_string<char>, std::__cxx11::basic_string<char>, std::_Identity<std::__cxx11::basic_string<char>>, std::less<std::__cxx11::basic_string<char>>>::_Rb_tree_impl" }
%"struct.std::_Rb_tree<std::__cxx11::basic_string<char>, std::__cxx11::basic_string<char>, std::_Identity<std::__cxx11::basic_string<char>>, std::less<std::__cxx11::basic_string<char>>>::_Rb_tree_impl" = type { [8 x i8], %"struct.std::_Rb_tree_header" }
%"class.clang::LazyDetector" = type { ptr, %"class.llvm::Triple", ptr, %"class.std::optional.170" }
%"class.std::optional.170" = type { %"struct.std::_Optional_base.171" }
%"struct.std::_Optional_base.171" = type { %"struct.std::_Optional_payload.173" }
%"struct.std::_Optional_payload.173" = type { %"struct.std::_Optional_payload.base.178", [7 x i8] }
%"struct.std::_Optional_payload.base.178" = type { %"struct.std::_Optional_payload_base.base.177" }
%"struct.std::_Optional_payload_base.base.177" = type <{ %"union.std::_Optional_payload_base<clang::driver::CudaInstallationDetector>::_Storage", i8 }>
%"union.std::_Optional_payload_base<clang::driver::CudaInstallationDetector>::_Storage" = type { %"class.clang::driver::CudaInstallationDetector" }
%"class.clang::driver::CudaInstallationDetector" = type { ptr, i8, i32, %"class.std::__cxx11::basic_string", %"class.std::__cxx11::basic_string", %"class.std::__cxx11::basic_string", %"class.std::__cxx11::basic_string", %"class.llvm::StringMap.176", %"class.std::bitset" }
%"class.llvm::StringMap.176" = type { %"class.llvm::StringMapImpl" }
%"class.std::bitset" = type { %"struct.std::_Base_bitset" }
%"struct.std::_Base_bitset" = type { [2 x i64] }
%"class.clang::LazyDetector.181" = type { ptr, %"class.llvm::Triple", ptr, %"class.std::optional.182" }
%"class.std::optional.182" = type { %"struct.std::_Optional_base.183" }
%"struct.std::_Optional_base.183" = type { %"struct.std::_Optional_payload.185" }
%"struct.std::_Optional_payload.185" = type { %"struct.std::_Optional_payload.base.206", [7 x i8] }
%"struct.std::_Optional_payload.base.206" = type { %"struct.std::_Optional_payload_base.base.205" }
%"struct.std::_Optional_payload_base.base.205" = type { %"union.std::_Optional_payload_base<clang::driver::RocmInstallationDetector>::_Storage", i8 }
%"union.std::_Optional_payload_base<clang::driver::RocmInstallationDetector>::_Storage" = type { %"class.clang::driver::RocmInstallationDetector" }
%"class.clang::driver::RocmInstallationDetector" = type <{ ptr, i8, i8, i8, i8, i8, [3 x i8], i32, i32, ptr, %"class.std::__cxx11::basic_string", %"class.llvm::VersionTuple", %"class.std::__cxx11::basic_string", %"class.llvm::StringRef", %"class.std::vector.98", %"class.llvm::StringRef", %"class.llvm::StringRef", %"class.llvm::StringRef", %"class.llvm::StringRef", %"class.llvm::StringRef", i8, [7 x i8], %"class.llvm::SmallString", %"class.llvm::SmallString", %"class.llvm::SmallString", %"class.llvm::SmallString", %"class.llvm::SmallString", %"class.llvm::SmallString", %"class.llvm::StringMap.176", %"class.llvm::SmallString", %"class.llvm::SmallString", %"class.llvm::SmallString", %"class.llvm::SmallString", %"class.llvm::SmallString", %"struct.clang::driver::RocmInstallationDetector::ConditionalLibrary", %"struct.clang::driver::RocmInstallationDetector::ConditionalLibrary", %"struct.clang::driver::RocmInstallationDetector::ConditionalLibrary", %"struct.clang::driver::RocmInstallationDetector::ConditionalLibrary", %"struct.clang::driver::RocmInstallationDetector::ConditionalLibrary", %"class.std::map.194", %"class.llvm::SmallVector.200", i8, i8, [6 x i8] }>
%"class.llvm::VersionTuple" = type { i64, i64 }
%"class.llvm::SmallString" = type { %"class.llvm::SmallVector.188" }
%"class.llvm::SmallVector.188" = type { %"class.llvm::SmallVectorImpl.189" }
%"struct.clang::driver::RocmInstallationDetector::ConditionalLibrary" = type { %"class.llvm::SmallString", %"class.llvm::SmallString" }
%"class.std::map.194" = type { %"class.std::_Rb_tree.195" }
%"class.std::_Rb_tree.195" = type { %"struct.std::_Rb_tree<unsigned int, std::pair<const unsigned int, std::__cxx11::basic_string<char>>, std::_Select1st<std::pair<const unsigned int, std::__cxx11::basic_string<char>>>, std::less<unsigned int>>::_Rb_tree_impl" }
%"struct.std::_Rb_tree<unsigned int, std::pair<const unsigned int, std::__cxx11::basic_string<char>>, std::_Select1st<std::pair<const unsigned int, std::__cxx11::basic_string<char>>>, std::less<unsigned int>>::_Rb_tree_impl" = type { [8 x i8], %"struct.std::_Rb_tree_header" }
%"class.llvm::SmallVector.200" = type { %"class.llvm::SmallVectorImpl.201", %"struct.llvm::SmallVectorStorage.204" }
%"class.llvm::SmallVectorImpl.201" = type { %"class.llvm::SmallVectorTemplateBase.202" }
%"class.llvm::SmallVectorTemplateBase.202" = type { %"class.llvm::SmallVectorTemplateCommon.203" }
%"class.llvm::SmallVectorTemplateCommon.203" = type { %"class.llvm::SmallVectorBase" }
%"struct.llvm::SmallVectorStorage.204" = type { [256 x i8] }
%"class.std::unique_ptr.209" = type { %"struct.std::__uniq_ptr_data.210" }
%"struct.std::__uniq_ptr_data.210" = type { %"class.std::__uniq_ptr_impl.211" }
%"class.std::__uniq_ptr_impl.211" = type { %"class.std::tuple.212" }
%"class.std::tuple.212" = type { %"struct.std::_Tuple_impl.213" }
%"struct.std::_Tuple_impl.213" = type { %"struct.std::_Head_base.216" }
%"struct.std::_Head_base.216" = type { ptr }
%"class.std::unique_ptr.217" = type { %"struct.std::__uniq_ptr_data.218" }
%"struct.std::__uniq_ptr_data.218" = type { %"class.std::__uniq_ptr_impl.219" }
%"class.std::__uniq_ptr_impl.219" = type { %"class.std::tuple.220" }
%"class.std::tuple.220" = type { %"struct.std::_Tuple_impl.221" }
%"struct.std::_Tuple_impl.221" = type { %"struct.std::_Head_base.224" }
%"struct.std::_Head_base.224" = type { ptr }
%"class.std::map.225" = type { %"class.std::_Rb_tree.226" }
%"class.std::_Rb_tree.226" = type { %"struct.std::_Rb_tree<clang::driver::options::ID, std::pair<const clang::driver::options::ID, const llvm::StringRef>, std::_Select1st<std::pair<const clang::driver::options::ID, const llvm::StringRef>>, std::less<clang::driver::options::ID>>::_Rb_tree_impl" }
%"struct.std::_Rb_tree<clang::driver::options::ID, std::pair<const clang::driver::options::ID, const llvm::StringRef>, std::_Select1st<std::pair<const clang::driver::options::ID, const llvm::StringRef>>, std::less<clang::driver::options::ID>>::_Rb_tree_impl" = type { [8 x i8], %"struct.std::_Rb_tree_header" }

; Function Attrs: mustprogress nounwind uwtable
define hidden { i64, i64 } @_ZNK5clang6driver10toolchains15HIPAMDToolChain22getSupportedSanitizersEv(ptr noundef nonnull align 8 dereferenceable(4544) %0) unnamed_addr #0 align 2 {
  %2 = alloca %"class.clang::SanitizerMask", align 8
  %3 = alloca ptr, align 8
  store ptr %0, ptr %3, align 8
  %4 = load ptr, ptr %3, align 8
  %5 = getelementptr inbounds nuw %"class.clang::driver::toolchains::HIPAMDToolChain", ptr %4, i32 0, i32 1
  %6 = load ptr, ptr %5, align 8
  %7 = load ptr, ptr %6, align 8
  %8 = getelementptr inbounds ptr, ptr %7, i64 88
  %9 = load ptr, ptr %8, align 8
  %10 = call { i64, i64 } %9(ptr noundef nonnull align 8 dereferenceable(2168) %6)
  %11 = getelementptr inbounds nuw %"class.clang::SanitizerMask", ptr %2, i32 0, i32 0
  %12 = getelementptr inbounds nuw { i64, i64 }, ptr %11, i32 0, i32 0
  %13 = extractvalue { i64, i64 } %10, 0
  store i64 %13, ptr %12, align 8
  %14 = getelementptr inbounds nuw { i64, i64 }, ptr %11, i32 0, i32 1
  %15 = extractvalue { i64, i64 } %10, 1
  store i64 %15, ptr %14, align 8
  %16 = getelementptr inbounds nuw %"class.clang::SanitizerMask", ptr %2, i32 0, i32 0
  %17 = load { i64, i64 }, ptr %16, align 8
  ret { i64, i64 } %17
}